target datalayout = "e-m:e-p270:32:32-p271:32:32-p272:64:64-i64:64-i128:128-f80:128-n8:16:32:64-S128"
target triple = "x86_64-pc-linux-gnu"

%"class.draco::IndexType.129" = type { i32 }
%"class.draco::IndexType.84" = type { i32 }
%"class.draco::ObjEncoder" = type { ptr, ptr, ptr, ptr, ptr, ptr, [20 x i8], ptr, ptr, ptr, %"class.std::unordered_map", i32, %"class.std::unordered_map", i32, %"class.std::__cxx11::basic_string" }
%"class.std::unordered_map" = type { %"class.std::_Hashtable" }
%"class.std::_Hashtable" = type { ptr, i64, %"struct.std::__detail::_Hash_node_base", i64, %"struct.std::__detail::_Prime_rehash_policy", ptr }
%"struct.std::__detail::_Hash_node_base" = type { ptr }
%"struct.std::__detail::_Prime_rehash_policy" = type { float, i64 }
%"class.std::__cxx11::basic_string" = type { %"struct.std::__cxx11::basic_string<char>::_Alloc_hider", i64, %union.anon }
%"struct.std::__cxx11::basic_string<char>::_Alloc_hider" = type { ptr }
%union.anon = type { i64, [8 x i8] }
%"class.std::unique_ptr.15" = type { %"struct.std::__uniq_ptr_data.16" }
%"struct.std::__uniq_ptr_data.16" = type { %"class.std::__uniq_ptr_impl.17" }
%"class.std::__uniq_ptr_impl.17" = type { %"class.std::tuple.18" }
%"class.std::tuple.18" = type { %"struct.std::_Tuple_impl.19" }
%"struct.std::_Tuple_impl.19" = type { %"struct.std::_Head_base.22" }
%"struct.std::_Head_base.22" = type { ptr }
%"class.std::vector.23" = type { %"struct.std::_Vector_base.24" }
%"struct.std::_Vector_base.24" = type { %"struct.std::_Vector_base<std::unique_ptr<draco::PointAttribute>, std::allocator<std::unique_ptr<draco::PointAttribute>>>::_Vector_impl" }
%"struct.std::_Vector_base<std::unique_ptr<draco::PointAttribute>, std::allocator<std::unique_ptr<draco::PointAttribute>>>::_Vector_impl" = type { %"struct.std::_Vector_base<std::unique_ptr<draco::PointAttribute>, std::allocator<std::unique_ptr<draco::PointAttribute>>>::_Vector_impl_data" }
%"struct.std::_Vector_base<std::unique_ptr<draco::PointAttribute>, std::allocator<std::unique_ptr<draco::PointAttribute>>>::_Vector_impl_data" = type { ptr, ptr, ptr }
%"class.std::vector.28" = type { %"struct.std::_Vector_base.29" }
%"struct.std::_Vector_base.29" = type { %"struct.std::_Vector_base<int, std::allocator<int>>::_Vector_impl" }
%"struct.std::_Vector_base<int, std::allocator<int>>::_Vector_impl" = type { %"struct.std::_Vector_base<int, std::allocator<int>>::_Vector_impl_data" }
%"struct.std::_Vector_base<int, std::allocator<int>>::_Vector_impl_data" = type { ptr, ptr, ptr }
%"class.draco::Mesh" = type { %"class.draco::PointCloud.base", %"class.std::vector.33", %"class.draco::IndexTypeVector" }
%"class.draco::PointCloud.base" = type <{ ptr, %"class.std::unique_ptr.15", %"class.std::vector.23", [5 x %"class.std::vector.28"], i32 }>
%"class.std::vector.33" = type { %"struct.std::_Vector_base.34" }
%"struct.std::_Vector_base.34" = type { %"struct.std::_Vector_base<draco::Mesh::AttributeData, std::allocator<draco::Mesh::AttributeData>>::_Vector_impl" }
%"struct.std::_Vector_base<draco::Mesh::AttributeData, std::allocator<draco::Mesh::AttributeData>>::_Vector_impl" = type { %"struct.std::_Vector_base<draco::Mesh::AttributeData, std::allocator<draco::Mesh::AttributeData>>::_Vector_impl_data" }
%"struct.std::_Vector_base<draco::Mesh::AttributeData, std::allocator<draco::Mesh::AttributeData>>::_Vector_impl_data" = type { ptr, ptr, ptr }
%"class.draco::IndexTypeVector" = type { %"class.std::vector.38" }
%"class.std::vector.38" = type { %"struct.std::_Vector_base.39" }
%"struct.std::_Vector_base.39" = type { %"struct.std::_Vector_base<std::array<draco::IndexType<unsigned int, draco::PointIndex_tag_type_>, 3>, std::allocator<std::array<draco::IndexType<unsigned int, draco::PointIndex_tag_type_>, 3>>>::_Vector_impl" }
%"struct.std::_Vector_base<std::array<draco::IndexType<unsigned int, draco::PointIndex_tag_type_>, 3>, std::allocator<std::array<draco::IndexType<unsigned int, draco::PointIndex_tag_type_>, 3>>>::_Vector_impl" = type { %"struct.std::_Vector_base<std::array<draco::IndexType<unsigned int, draco::PointIndex_tag_type_>, 3>, std::allocator<std::array<draco::IndexType<unsigned int, draco::PointIndex_tag_type_>, 3>>>::_Vector_impl_data" }
%"struct.std::_Vector_base<std::array<draco::IndexType<unsigned int, draco::PointIndex_tag_type_>, 3>, std::allocator<std::array<draco::IndexType<unsigned int, draco::PointIndex_tag_type_>, 3>>>::_Vector_impl_data" = type { ptr, ptr, ptr }
%"struct.std::array.130" = type { [3 x %"class.draco::IndexType.129"] }

; Function Attrs: mustprogress nounwind uwtable
define linkonce_odr dso_local noundef nonnull align 4 dereferenceable(12) ptr @_ZNKSt6vectorISt5arrayIN5draco9IndexTypeIjNS1_20PointIndex_tag_type_EEELm3EESaIS5_EEixEm(ptr noundef nonnull align 8 dereferenceable(24) %0, i64 noundef %1) #4 comdat align 2 {
  %3 = alloca ptr, align 8
  %4 = alloca i64, align 8
  store ptr %0, ptr %3, align 8, !tbaa !299
  store i64 %1, ptr %4, align 8, !tbaa !132
  %5 = load ptr, ptr %3, align 8
  %6 = getelementptr inbounds nuw %"struct.std::_Vector_base.39", ptr %5, i32 0, i32 0
  %7 = getelementptr inbounds nuw %"struct.std::_Vector_base<std::array<draco::IndexType<unsigned int, draco::PointIndex_tag_type_>, 3>, std::allocator<std::array<draco::IndexType<unsigned int, draco::PointIndex_tag_type_>, 3>>>::_Vector_impl_data", ptr %6, i32 0, i32 0
  %8 = load ptr, ptr %7, align 8, !tbaa !303
  %9 = load i64, ptr %4, align 8, !tbaa !132
  %10 = getelementptr inbounds nuw %"struct.std::array.130", ptr %8, i64 %9
  ret ptr %10
}

; Function Attrs: mustprogress nounwind uwtable
define linkonce_odr dso_local noundef i32 @_ZNK5draco9IndexTypeIjNS_19FaceIndex_tag_type_EE5valueEv(ptr noundef nonnull align 4 dereferenceable(4) %0) #4 comdat align 2 {
  %2 = alloca ptr, align 8
  store ptr %0, ptr %2, align 8, !tbaa !148
  %3 = load ptr, ptr %2, align 8
  %4 = getelementptr inbounds nuw %"class.draco::IndexType.84", ptr %3, i32 0, i32 0
  %5 = load i32, ptr %4, align 4, !tbaa !150
  ret i32 %5
}

; Function Attrs: mustprogress nounwind uwtable
define linkonce_odr dso_local noundef nonnull align 4 dereferenceable(4) ptr @_ZNSt14__array_traitsIN5draco9IndexTypeIjNS0_20PointIndex_tag_type_EEELm3EE6_S_refERA3_KS3_m(ptr noundef nonnull align 4 dereferenceable(12) %0, i64 noundef %1) #4 comdat align 2 {
  %3 = alloca ptr, align 8
  %4 = alloca i64, align 8
  store ptr %0, ptr %3, align 8, !tbaa !199
  store i64 %1, ptr %4, align 8, !tbaa !132
  %5 = load ptr, ptr %3, align 8, !tbaa !199
  %6 = load i64, ptr %4, align 8, !tbaa !132
  %7 = getelementptr inbounds nuw [3 x %"class.draco::IndexType.129"], ptr %5, i64 0, i64 %6
  ret ptr %7
}

; Function Attrs: inlinehint mustprogress uwtable
define linkonce_odr dso_local noundef nonnull align 4 dereferenceable(12) ptr @_ZNK5draco15IndexTypeVectorINS_9IndexTypeIjNS_19FaceIndex_tag_type_EEESt5arrayINS1_IjNS_20PointIndex_tag_type_EEELm3EEEixERKS3_(ptr noundef nonnull align 8 dereferenceable(24) %0, ptr noundef nonnull align 4 dereferenceable(4) %1) #10 comdat align 2 {
  %3 = alloca ptr, align 8
  %4 = alloca ptr, align 8
  store ptr %0, ptr %3, align 8, !tbaa !297
  store ptr %1, ptr %4, align 8, !tbaa !148
  %5 = load ptr, ptr %3, align 8
  %6 = getelementptr inbounds nuw %"class.draco::IndexTypeVector", ptr %5, i32 0, i32 0
  %7 = load ptr, ptr %4, align 8, !tbaa !148
  %8 = call noundef i32 @_ZNK5draco9IndexTypeIjNS_19FaceIndex_tag_type_EE5valueEv(ptr noundef nonnull align 4 dereferenceable(4) %7)
  %9 = zext i32 %8 to i64
  %10 = call noundef nonnull align 4 dereferenceable(12) ptr @_ZNKSt6vectorISt5arrayIN5draco9IndexTypeIjNS1_20PointIndex_tag_type_EEELm3EESaIS5_EEixEm(ptr noundef nonnull align 8 dereferenceable(24) %6, i64 noundef %9) #3
  ret ptr %10
}

; Function Attrs: mustprogress nounwind uwtable
define linkonce_odr dso_local noundef nonnull align 4 dereferenceable(4) ptr @_ZNKSt5arrayIN5draco9IndexTypeIjNS0_20PointIndex_tag_type_EEELm3EEixEm(ptr noundef nonnull align 4 dereferenceable(12) %0, i64 noundef %1) #4 comdat align 2 {
  %3 = alloca ptr, align 8
  %4 = alloca i64, align 8
  store ptr %0, ptr %3, align 8, !tbaa !164
  store i64 %1, ptr %4, align 8, !tbaa !132
  %5 = load ptr, ptr %3, align 8
  %6 = getelementptr inbounds nuw %"struct.std::array.130", ptr %5, i32 0, i32 0
  %7 = load i64, ptr %4, align 8, !tbaa !132
  %8 = call noundef nonnull align 4 dereferenceable(4) ptr @_ZNSt14__array_traitsIN5draco9IndexTypeIjNS0_20PointIndex_tag_type_EEELm3EE6_S_refERA3_KS3_m(ptr noundef nonnull align 4 dereferenceable(12) %6, i64 noundef %7) #3
  ret ptr %8
}

; Function Attrs: mustprogress uwtable
define linkonce_odr dso_local noundef nonnull align 4 dereferenceable(12) ptr @_ZNK5draco4Mesh4faceENS_9IndexTypeIjNS_19FaceIndex_tag_type_EEE(ptr noundef nonnull align 8 dereferenceable(216) %0, i32 %1) #5 comdat align 2 {
  %3 = alloca %"class.draco::IndexType.84", align 4
  %4 = alloca ptr, align 8
  %5 = getelementptr inbounds nuw %"class.draco::IndexType.84", ptr %3, i32 0, i32 0
  store i32 %1, ptr %5, align 4
  store ptr %0, ptr %4, align 8, !tbaa !51
  %6 = load ptr, ptr %4, align 8
  %7 = getelementptr inbounds nuw %"class.draco::Mesh", ptr %6, i32 0, i32 2
  %8 = call noundef nonnull align 4 dereferenceable(12) ptr @_ZNK5draco15IndexTypeVectorINS_9IndexTypeIjNS_19FaceIndex_tag_type_EEESt5arrayINS1_IjNS_20PointIndex_tag_type_EEELm3EEEixERKS3_(ptr noundef nonnull align 8 dereferenceable(24) %7, ptr noundef nonnull align 4 dereferenceable(4) %3)
  ret ptr %8
}

; Function Attrs: mustprogress uwtable
define dso_local noundef zeroext i1 @_ZN5draco10ObjEncoder16EncodeFaceCornerENS_9IndexTypeIjNS_19FaceIndex_tag_type_EEEi(ptr noundef nonnull align 8 dereferenceable(256) %0, i32 %1, i32 noundef %2) #5 align 2 {
  %4 = alloca %"class.draco::IndexType.84", align 4
  %5 = alloca ptr, align 8
  %6 = alloca i32, align 4
  %7 = alloca %"class.draco::IndexType.129", align 4
  %8 = alloca %"class.draco::IndexType.84", align 4
  %9 = alloca %"class.draco::IndexType.129", align 4
  %10 = getelementptr inbounds nuw %"class.draco::IndexType.84", ptr %4, i32 0, i32 0
  store i32 %1, ptr %10, align 4
  store ptr %0, ptr %5, align 8, !tbaa !4
  store i32 %2, ptr %6, align 4, !tbaa !64
  %11 = load ptr, ptr %5, align 8
  call void @llvm.lifetime.start.p0(i64 4, ptr %7) #3
  %12 = getelementptr inbounds nuw %"class.draco::ObjEncoder", ptr %11, i32 0, i32 9
  %13 = load ptr, ptr %12, align 8, !tbaa !34
  call void @llvm.memcpy.p0.p0.i64(ptr align 4 %8, ptr align 4 %4, i64 4, i1 false), !tbaa.struct !66
  %14 = getelementptr inbounds nuw %"class.draco::IndexType.84", ptr %8, i32 0, i32 0
  %15 = load i32, ptr %14, align 4
  %16 = call noundef nonnull align 4 dereferenceable(12) ptr @_ZNK5draco4Mesh4faceENS_9IndexTypeIjNS_19FaceIndex_tag_type_EEE(ptr noundef nonnull align 8 dereferenceable(216) %13, i32 %15)
  %17 = load i32, ptr %6, align 4, !tbaa !64
  %18 = sext i32 %17 to i64
  %19 = call noundef nonnull align 4 dereferenceable(4) ptr @_ZNKSt5arrayIN5draco9IndexTypeIjNS0_20PointIndex_tag_type_EEELm3EEixEm(ptr noundef nonnull align 4 dereferenceable(12) %16, i64 noundef %18) #3
  call void @llvm.memcpy.p0.p0.i64(ptr align 4 %7, ptr align 4 %19, i64 4, i1 false), !tbaa.struct !66
  call void @llvm.memcpy.p0.p0.i64(ptr align 4 %9, ptr align 4 %7, i64 4, i1 false), !tbaa.struct !66
  %20 = getelementptr inbounds nuw %"class.draco::IndexType.129", ptr %9, i32 0, i32 0
  %21 = load i32, ptr %20, align 4
  %22 = call noundef zeroext i1 @_ZN5draco10ObjEncoder16EncodeFaceCornerENS_9IndexTypeIjNS_20PointIndex_tag_type_EEE(ptr noundef nonnull align 8 dereferenceable(256) %11, i32 %21)
  call void @llvm.lifetime.end.p0(i64 4, ptr %7) #3
  ret i1 %22
}