; Function Attrs: mustprogress uwtable
define dso_local noundef zeroext i1 @_ZN5draco10ObjEncoder16EncodeFaceCornerENS_9IndexTypeIjNS_19FaceIndex_tag_type_EEEi(ptr noundef nonnull align 8 dereferenceable(256) %0, i32 %1, i32 noundef %2) local_unnamed_addr #4 align 2 {
  %4 = getelementptr inbounds nuw i8, ptr %0, i64 88
  %5 = load ptr, ptr %4, align 8, !tbaa !45
  %6 = getelementptr inbounds nuw i8, ptr %5, i64 192
  %7 = zext i32 %1 to i64
  %8 = load ptr, ptr %6, align 8, !tbaa !134
  %9 = getelementptr inbounds nuw %"struct.std::array.130", ptr %8, i64 %7
  %10 = sext i32 %2 to i64
  %11 = getelementptr inbounds nuw [3 x %"class.draco::IndexType.129"], ptr %9, i64 0, i64 %10
  %.sroa.02.0.copyload = load i32, ptr %11, align 4, !tbaa !73
  %12 = tail call noundef zeroext i1 @_ZN5draco10ObjEncoder16EncodeFaceCornerENS_9IndexTypeIjNS_20PointIndex_tag_type_EEE(ptr noundef nonnull align 8 dereferenceable(256) %0, i32 %.sroa.02.0.copyload)
  ret i1 true
}